target datalayout = "e-m:e-p270:32:32-p271:32:32-p272:64:64-i64:64-i128:128-f80:128-n8:16:32:64-S128"
target triple = "x86_64-pc-linux-gnu"

%"class.absl::debian2::AlphaNum" = type { %"class.absl::debian2::string_view", [32 x i8] }
%"class.absl::debian2::string_view" = type { ptr, i64 }
%"class.std::initializer_list.6" = type { ptr, i64 }

; Function Attrs: mustprogress nounwind uwtable
define linkonce_odr dso_local { ptr, i64 } @_ZNK4absl7debian28AlphaNum5PieceEv(ptr noundef nonnull align 8 dereferenceable(48) %0) #1 comdat align 2 {
  %2 = alloca %"class.absl::debian2::string_view", align 8
  %3 = alloca ptr, align 8
  store ptr %0, ptr %3, align 8, !tbaa !11
  %4 = load ptr, ptr %3, align 8
  %5 = getelementptr inbounds nuw %"class.absl::debian2::AlphaNum", ptr %4, i32 0, i32 0
  call void @llvm.memcpy.p0.p0.i64(ptr align 8 %2, ptr align 8 %5, i64 16, i1 false), !tbaa.struct !24
  %6 = load { ptr, i64 }, ptr %2, align 8
  ret { ptr, i64 } %6
}

; Function Attrs: inlinehint mustprogress uwtable
define linkonce_odr dso_local void @_ZN4absl7debian29StrAppendIJEEEvPNSt7__cxx1112basic_stringIcSt11char_traitsIcESaIcEEERKNS0_8AlphaNumESB_SB_SB_SB_DpRKT_(ptr noundef %0, ptr noundef nonnull align 8 dereferenceable(48) %1, ptr noundef nonnull align 8 dereferenceable(48) %2, ptr noundef nonnull align 8 dereferenceable(48) %3, ptr noundef nonnull align 8 dereferenceable(48) %4, ptr noundef nonnull align 8 dereferenceable(48) %5) #4 comdat {
  %7 = alloca ptr, align 8
  %8 = alloca ptr, align 8
  %9 = alloca ptr, align 8
  %10 = alloca ptr, align 8
  %11 = alloca ptr, align 8
  %12 = alloca ptr, align 8
  %13 = alloca %"class.std::initializer_list.6", align 8
  %14 = alloca [5 x %"class.absl::debian2::string_view"], align 8
  store ptr %0, ptr %7, align 8, !tbaa !4
  store ptr %1, ptr %8, align 8, !tbaa !11
  store ptr %2, ptr %9, align 8, !tbaa !11
  store ptr %3, ptr %10, align 8, !tbaa !11
  store ptr %4, ptr %11, align 8, !tbaa !11
  store ptr %5, ptr %12, align 8, !tbaa !11
  %15 = load ptr, ptr %7, align 8, !tbaa !4
  call void @llvm.lifetime.start.p0(i64 80, ptr %14) #16
  %16 = load ptr, ptr %8, align 8, !tbaa !11
  %17 = call { ptr, i64 } @_ZNK4absl7debian28AlphaNum5PieceEv(ptr noundef nonnull align 8 dereferenceable(48) %16)
  %18 = getelementptr inbounds nuw { ptr, i64 }, ptr %14, i32 0, i32 0
  %19 = extractvalue { ptr, i64 } %17, 0
  store ptr %19, ptr %18, align 8
  %20 = getelementptr inbounds nuw { ptr, i64 }, ptr %14, i32 0, i32 1
  %21 = extractvalue { ptr, i64 } %17, 1
  store i64 %21, ptr %20, align 8
  %22 = getelementptr inbounds %"class.absl::debian2::string_view", ptr %14, i64 1
  %23 = load ptr, ptr %9, align 8, !tbaa !11
  %24 = call { ptr, i64 } @_ZNK4absl7debian28AlphaNum5PieceEv(ptr noundef nonnull align 8 dereferenceable(48) %23)
  %25 = getelementptr inbounds nuw { ptr, i64 }, ptr %22, i32 0, i32 0
  %26 = extractvalue { ptr, i64 } %24, 0
  store ptr %26, ptr %25, align 8
  %27 = getelementptr inbounds nuw { ptr, i64 }, ptr %22, i32 0, i32 1
  %28 = extractvalue { ptr, i64 } %24, 1
  store i64 %28, ptr %27, align 8
  %29 = getelementptr inbounds %"class.absl::debian2::string_view", ptr %14, i64 2
  %30 = load ptr, ptr %10, align 8, !tbaa !11
  %31 = call { ptr, i64 } @_ZNK4absl7debian28AlphaNum5PieceEv(ptr noundef nonnull align 8 dereferenceable(48) %30)
  %32 = getelementptr inbounds nuw { ptr, i64 }, ptr %29, i32 0, i32 0
  %33 = extractvalue { ptr, i64 } %31, 0
  store ptr %33, ptr %32, align 8
  %34 = getelementptr inbounds nuw { ptr, i64 }, ptr %29, i32 0, i32 1
  %35 = extractvalue { ptr, i64 } %31, 1
  store i64 %35, ptr %34, align 8
  %36 = getelementptr inbounds %"class.absl::debian2::string_view", ptr %14, i64 3
  %37 = load ptr, ptr %11, align 8, !tbaa !11
  %38 = call { ptr, i64 } @_ZNK4absl7debian28AlphaNum5PieceEv(ptr noundef nonnull align 8 dereferenceable(48) %37)
  %39 = getelementptr inbounds nuw { ptr, i64 }, ptr %36, i32 0, i32 0
  %40 = extractvalue { ptr, i64 } %38, 0
  store ptr %40, ptr %39, align 8
  %41 = getelementptr inbounds nuw { ptr, i64 }, ptr %36, i32 0, i32 1
  %42 = extractvalue { ptr, i64 } %38, 1
  store i64 %42, ptr %41, align 8
  %43 = getelementptr inbounds %"class.absl::debian2::string_view", ptr %14, i64 4
  %44 = load ptr, ptr %12, align 8, !tbaa !11
  %45 = call { ptr, i64 } @_ZNK4absl7debian28AlphaNum5PieceEv(ptr noundef nonnull align 8 dereferenceable(48) %44)
  %46 = getelementptr inbounds nuw { ptr, i64 }, ptr %43, i32 0, i32 0
  %47 = extractvalue { ptr, i64 } %45, 0
  store ptr %47, ptr %46, align 8
  %48 = getelementptr inbounds nuw { ptr, i64 }, ptr %43, i32 0, i32 1
  %49 = extractvalue { ptr, i64 } %45, 1
  store i64 %49, ptr %48, align 8
  %50 = getelementptr inbounds nuw %"class.std::initializer_list.6", ptr %13, i32 0, i32 0
  store ptr %14, ptr %50, align 8, !tbaa !74
  %51 = getelementptr inbounds nuw %"class.std::initializer_list.6", ptr %13, i32 0, i32 1
  store i64 5, ptr %51, align 8, !tbaa !76
  %52 = getelementptr inbounds nuw { ptr, i64 }, ptr %13, i32 0, i32 0
  %53 = load ptr, ptr %52, align 8
  %54 = getelementptr inbounds nuw { ptr, i64 }, ptr %13, i32 0, i32 1
  %55 = load i64, ptr %54, align 8
  call void @_ZN4absl7debian216strings_internal12AppendPiecesEPNSt7__cxx1112basic_stringIcSt11char_traitsIcESaIcEEESt16initializer_listINS0_11string_viewEE(ptr noundef %15, ptr %53, i64 %55)
  call void @llvm.lifetime.end.p0(i64 80, ptr %14) #16
  ret void
}

; Function Attrs: mustprogress uwtable
define dso_local void @_ZN4i18n12phonenumbers9StrAppendEPNSt7__cxx1112basic_stringIcSt11char_traitsIcESaIcEEERKNS0_12StringHolderESA_SA_SA_SA_(ptr noundef %0, ptr noundef nonnull align 8 dereferenceable(48) %1, ptr noundef nonnull align 8 dereferenceable(48) %2, ptr noundef nonnull align 8 dereferenceable(48) %3, ptr noundef nonnull align 8 dereferenceable(48) %4, ptr noundef nonnull align 8 dereferenceable(48) %5) #0 {
  %7 = alloca ptr, align 8
  %8 = alloca ptr, align 8
  %9 = alloca ptr, align 8
  %10 = alloca ptr, align 8
  %11 = alloca ptr, align 8
  %12 = alloca ptr, align 8
  store ptr %0, ptr %7, align 8, !tbaa !4
  store ptr %1, ptr %8, align 8, !tbaa !70
  store ptr %2, ptr %9, align 8, !tbaa !70
  store ptr %3, ptr %10, align 8, !tbaa !70
  store ptr %4, ptr %11, align 8, !tbaa !70
  store ptr %5, ptr %12, align 8, !tbaa !70
  %13 = load ptr, ptr %7, align 8, !tbaa !4
  %14 = load ptr, ptr %8, align 8, !tbaa !70
  %15 = load ptr, ptr %9, align 8, !tbaa !70
  %16 = load ptr, ptr %10, align 8, !tbaa !70
  %17 = load ptr, ptr %11, align 8, !tbaa !70
  %18 = load ptr, ptr %12, align 8, !tbaa !70
  call void @_ZN4absl7debian29StrAppendIJEEEvPNSt7__cxx1112basic_stringIcSt11char_traitsIcESaIcEEERKNS0_8AlphaNumESB_SB_SB_SB_DpRKT_(ptr noundef %13, ptr noundef nonnull align 8 dereferenceable(48) %14, ptr noundef nonnull align 8 dereferenceable(48) %15, ptr noundef nonnull align 8 dereferenceable(48) %16, ptr noundef nonnull align 8 dereferenceable(48) %17, ptr noundef nonnull align 8 dereferenceable(48) %18)
  ret void
}