; Function Attrs: mustprogress uwtable
define dso_local void @_ZN4i18n12phonenumbers9StrAppendEPNSt7__cxx1112basic_stringIcSt11char_traitsIcESaIcEEERKNS0_12StringHolderESA_SA_SA_SA_(ptr noundef %0, ptr noundef nonnull readonly align 8 captures(none) dereferenceable(48) %1, ptr noundef nonnull readonly align 8 captures(none) dereferenceable(48) %2, ptr noundef nonnull readonly align 8 captures(none) dereferenceable(48) %3, ptr noundef nonnull readonly align 8 captures(none) dereferenceable(48) %4, ptr noundef nonnull readonly align 8 captures(none) dereferenceable(48) %5) local_unnamed_addr #0 {
  %7 = alloca [5 x %"class.absl::debian2::string_view"], align 8
  call void @llvm.lifetime.start.p0(i64 80, ptr nonnull %7) #19
  %.sroa.0.0.copyload.i.i = load ptr, ptr %1, align 8, !tbaa !31
  %.sroa.2.0..sroa_idx.i.i = getelementptr inbounds nuw i8, ptr %1, i64 8
  %.sroa.2.0.copyload.i.i = load i64, ptr %.sroa.2.0..sroa_idx.i.i, align 8, !tbaa !22
  store ptr %.sroa.0.0.copyload.i.i, ptr %7, align 8
  %8 = getelementptr inbounds nuw i8, ptr %7, i64 8
  store i64 %.sroa.2.0.copyload.i.i, ptr %8, align 8
  %9 = getelementptr inbounds nuw i8, ptr %7, i64 16
  %.sroa.0.0.copyload.i6.i = load ptr, ptr %2, align 8, !tbaa !31
  %.sroa.2.0..sroa_idx.i7.i = getelementptr inbounds nuw i8, ptr %2, i64 8
  %.sroa.2.0.copyload.i8.i = load i64, ptr %.sroa.2.0..sroa_idx.i7.i, align 8, !tbaa !22
  store ptr %.sroa.0.0.copyload.i6.i, ptr %9, align 8
  %10 = getelementptr inbounds nuw i8, ptr %7, i64 24
  store i64 %.sroa.2.0.copyload.i8.i, ptr %10, align 8
  %11 = getelementptr inbounds nuw i8, ptr %7, i64 32
  %.sroa.0.0.copyload.i11.i = load ptr, ptr %3, align 8, !tbaa !31
  %.sroa.2.0..sroa_idx.i12.i = getelementptr inbounds nuw i8, ptr %3, i64 8
  %.sroa.2.0.copyload.i13.i = load i64, ptr %.sroa.2.0..sroa_idx.i12.i, align 8, !tbaa !22
  store ptr %.sroa.0.0.copyload.i11.i, ptr %11, align 8
  %12 = getelementptr inbounds nuw i8, ptr %7, i64 40
  store i64 %.sroa.2.0.copyload.i13.i, ptr %12, align 8
  %13 = getelementptr inbounds nuw i8, ptr %7, i64 48
  %.sroa.0.0.copyload.i16.i = load ptr, ptr %4, align 8, !tbaa !31
  %.sroa.2.0..sroa_idx.i17.i = getelementptr inbounds nuw i8, ptr %4, i64 8
  %.sroa.2.0.copyload.i18.i = load i64, ptr %.sroa.2.0..sroa_idx.i17.i, align 8, !tbaa !22
  store ptr %.sroa.0.0.copyload.i16.i, ptr %13, align 8
  %14 = getelementptr inbounds nuw i8, ptr %7, i64 56
  store i64 %.sroa.2.0.copyload.i18.i, ptr %14, align 8
  %15 = getelementptr inbounds nuw i8, ptr %7, i64 64
  %.sroa.0.0.copyload.i21.i = load ptr, ptr %5, align 8, !tbaa !31
  %.sroa.2.0..sroa_idx.i22.i = getelementptr inbounds nuw i8, ptr %5, i64 8
  %.sroa.2.0.copyload.i23.i = load i64, ptr %.sroa.2.0..sroa_idx.i22.i, align 8, !tbaa !22
  store ptr %.sroa.0.0.copyload.i21.i, ptr %15, align 8
  %16 = getelementptr inbounds nuw i8, ptr %7, i64 72
  store i64 %.sroa.2.0.copyload.i23.i, ptr %16, align 8
  call void @_ZN4absl7debian216strings_internal12AppendPiecesEPNSt7__cxx1112basic_stringIcSt11char_traitsIcESaIcEEESt16initializer_listINS0_11string_viewEE(ptr noundef %0, ptr nonnull %7, i64 5)
  call void @llvm.lifetime.end.p0(i64 80, ptr nonnull %7) #19
  ret void
}